--- !tapi-tbd
tbd-version:     4
targets:         [ x86_64-macos, arm64-macos ]
flags:           [ not_app_extension_safe ]
install-name:    '/usr/local/lib/KO.dylib'
exports:
  - targets:         [ x86_64-macos ]
    weak-symbols:    [ __ZTIN5faust2UIE, __ZTIN5faust3dspE, __ZTIN5faust6UIRealIfEE, 
                       __ZTINSt3__110__function6__baseIFbiiEEE, __ZTINSt3__110__function6__baseIFddEEE, 
                       __ZTINSt3__110__function6__baseIFdmEEE, __ZTINSt3__110__function6__baseIFffEEE, 
                       __ZTINSt3__110__function6__baseIFfmEEE, __ZTINSt3__110__function6__baseIFivEEE, 
                       __ZTINSt3__110__function6__baseIFvbEEE, __ZTINSt3__110__function6__baseIFviEEE, 
                       __ZTINSt3__110__function6__baseIFvvEEE, __ZTINSt3__115basic_stringbufIcNS_11char_traitsIcEENS_9allocatorIcEEEE, 
                       __ZTINSt3__117bad_function_callE, __ZTINSt3__119basic_ostringstreamIcNS_11char_traitsIcEENS_9allocatorIcEEEE, 
                       __ZTSN5faust2UIE, __ZTSN5faust3dspE, __ZTSN5faust6UIRealIfEE, 
                       __ZTSNSt3__110__function6__baseIFbiiEEE, __ZTSNSt3__110__function6__baseIFddEEE, 
                       __ZTSNSt3__110__function6__baseIFdmEEE, __ZTSNSt3__110__function6__baseIFffEEE, 
                       __ZTSNSt3__110__function6__baseIFfmEEE, __ZTSNSt3__110__function6__baseIFivEEE, 
                       __ZTSNSt3__110__function6__baseIFvbEEE, __ZTSNSt3__110__function6__baseIFviEEE, 
                       __ZTSNSt3__110__function6__baseIFvvEEE, __ZTSNSt3__115basic_stringbufIcNS_11char_traitsIcEENS_9allocatorIcEEEE, 
                       __ZTSNSt3__117bad_function_callE, __ZTSNSt3__119basic_ostringstreamIcNS_11char_traitsIcEENS_9allocatorIcEEEE ]
  - targets:         [ x86_64-macos, arm64-macos ]
    symbols:         [ _clearError, _deInitOpaqueNode, _getDllVersionCounter, _getError, 
                       _getHash, _getNodeId, _getNumDataObjects, _getNumNodes, _getWrapperType, 
                       _initOpaqueNode, _isThirdPartyNode ]
...
